; Function Attrs: mustprogress uwtable
define void @_ZN32pxrInternal_v0_24__pxrReserved__31Tf_ApplyDoubleToStringConverterEfPci(float noundef %0, ptr noundef %1, i32 noundef %2) local_unnamed_addr #0 personality ptr @__gxx_personality_v0 {
  %4 = alloca %"class.pxrInternal_v0_24__pxrReserved__::pxr_double_conversion::StringBuilder", align 8
  %5 = alloca %"class.pxrInternal_v0_24__pxrReserved__::TfCallContext", align 8
  %6 = load atomic i8, ptr @_ZGVZN32pxrInternal_v0_24__pxrReserved__L29Tf_GetDoubleToStringConverterEvE4conv acquire, align 8
  %7 = icmp eq i8 %6, 0
  br i1 %7, label %8, label %_ZN32pxrInternal_v0_24__pxrReserved__L29Tf_GetDoubleToStringConverterEv.exit, !prof !49

8:                                                ; preds = %3
  %9 = tail call i32 @__cxa_guard_acquire(ptr nonnull @_ZGVZN32pxrInternal_v0_24__pxrReserved__L29Tf_GetDoubleToStringConverterEvE4conv) #22
  %.not.i = icmp eq i32 %9, 0
  br i1 %.not.i, label %_ZN32pxrInternal_v0_24__pxrReserved__L29Tf_GetDoubleToStringConverterEv.exit, label %10

10:                                               ; preds = %8
  store i32 0, ptr @_ZZN32pxrInternal_v0_24__pxrReserved__L29Tf_GetDoubleToStringConverterEvE4conv, align 8
  store ptr @.str.15, ptr getelementptr inbounds nuw (i8, ptr @_ZZN32pxrInternal_v0_24__pxrReserved__L29Tf_GetDoubleToStringConverterEvE4conv, i64 8), align 8
  store ptr @.str.16, ptr getelementptr inbounds nuw (i8, ptr @_ZZN32pxrInternal_v0_24__pxrReserved__L29Tf_GetDoubleToStringConverterEvE4conv, i64 16), align 8
  store i8 101, ptr getelementptr inbounds nuw (i8, ptr @_ZZN32pxrInternal_v0_24__pxrReserved__L29Tf_GetDoubleToStringConverterEvE4conv, i64 24), align 8
  store i32 -6, ptr getelementptr inbounds nuw (i8, ptr @_ZZN32pxrInternal_v0_24__pxrReserved__L29Tf_GetDoubleToStringConverterEvE4conv, i64 28), align 4
  store i32 15, ptr getelementptr inbounds nuw (i8, ptr @_ZZN32pxrInternal_v0_24__pxrReserved__L29Tf_GetDoubleToStringConverterEvE4conv, i64 32), align 8
  store i32 0, ptr getelementptr inbounds nuw (i8, ptr @_ZZN32pxrInternal_v0_24__pxrReserved__L29Tf_GetDoubleToStringConverterEvE4conv, i64 36), align 4
  store i32 0, ptr getelementptr inbounds nuw (i8, ptr @_ZZN32pxrInternal_v0_24__pxrReserved__L29Tf_GetDoubleToStringConverterEvE4conv, i64 40), align 8
  store i32 0, ptr getelementptr inbounds nuw (i8, ptr @_ZZN32pxrInternal_v0_24__pxrReserved__L29Tf_GetDoubleToStringConverterEvE4conv, i64 44), align 4
  tail call void @__cxa_guard_release(ptr nonnull @_ZGVZN32pxrInternal_v0_24__pxrReserved__L29Tf_GetDoubleToStringConverterEvE4conv) #22
  br label %_ZN32pxrInternal_v0_24__pxrReserved__L29Tf_GetDoubleToStringConverterEv.exit

_ZN32pxrInternal_v0_24__pxrReserved__L29Tf_GetDoubleToStringConverterEv.exit: ; preds = %3, %8, %10
  store ptr %1, ptr %4, align 8
  %11 = getelementptr inbounds nuw i8, ptr %4, i64 8
  store i32 %2, ptr %11, align 8
  %12 = getelementptr inbounds nuw i8, ptr %4, i64 16
  store i32 0, ptr %12, align 8
  %13 = fpext float %0 to double
  %14 = invoke noundef zeroext i1 @_ZNK32pxrInternal_v0_24__pxrReserved__21pxr_double_conversion23DoubleToStringConverter20ToShortestIeeeNumberEdPNS0_13StringBuilderENS1_8DtoaModeE(ptr noundef nonnull align 8 dereferenceable(48) @_ZZN32pxrInternal_v0_24__pxrReserved__L29Tf_GetDoubleToStringConverterEvE4conv, double noundef %13, ptr noundef nonnull %4, i32 noundef 1)
          to label %_ZNK32pxrInternal_v0_24__pxrReserved__21pxr_double_conversion23DoubleToStringConverter16ToShortestSingleEfPNS0_13StringBuilderE.exit unwind label %30

_ZNK32pxrInternal_v0_24__pxrReserved__21pxr_double_conversion23DoubleToStringConverter16ToShortestSingleEfPNS0_13StringBuilderE.exit: ; preds = %_ZN32pxrInternal_v0_24__pxrReserved__L29Tf_GetDoubleToStringConverterEv.exit
  br i1 %14, label %23, label %15

15:                                               ; preds = %_ZNK32pxrInternal_v0_24__pxrReserved__21pxr_double_conversion23DoubleToStringConverter16ToShortestSingleEfPNS0_13StringBuilderE.exit
  store ptr @.str.11, ptr %5, align 8
  %16 = getelementptr inbounds nuw i8, ptr %5, i64 8
  store ptr @__func__._ZN32pxrInternal_v0_24__pxrReserved__31Tf_ApplyDoubleToStringConverterEfPci, ptr %16, align 8
  %17 = getelementptr inbounds nuw i8, ptr %5, i64 16
  store i64 940, ptr %17, align 8
  %18 = getelementptr inbounds nuw i8, ptr %5, i64 24
  store ptr @__PRETTY_FUNCTION__._ZN32pxrInternal_v0_24__pxrReserved__31Tf_ApplyDoubleToStringConverterEfPci, ptr %18, align 8
  %19 = getelementptr inbounds nuw i8, ptr %5, i64 32
  store i8 0, ptr %19, align 8
  %20 = invoke noundef ptr (ptr, ...) @_ZN32pxrInternal_v0_24__pxrReserved__21Tf_VerifyStringFormatEPKcz(ptr noundef nonnull @.str.13)
          to label %21 unwind label %30

21:                                               ; preds = %15
  %22 = invoke noundef zeroext i1 @_ZN32pxrInternal_v0_24__pxrReserved__21Tf_FailedVerifyHelperERKNS_13TfCallContextEPKcS4_(ptr noundef nonnull align 8 dereferenceable(33) %5, ptr noundef nonnull @.str.12, ptr noundef %20)
          to label %23 unwind label %30

23:                                               ; preds = %21, %_ZNK32pxrInternal_v0_24__pxrReserved__21pxr_double_conversion23DoubleToStringConverter16ToShortestSingleEfPNS0_13StringBuilderE.exit
  %24 = load i32, ptr %12, align 8
  %25 = icmp slt i32 %24, 0
  br i1 %25, label %_ZN32pxrInternal_v0_24__pxrReserved__21pxr_double_conversion13StringBuilderD2Ev.exit, label %26

26:                                               ; preds = %23
  %27 = load ptr, ptr %4, align 8
  %28 = zext nneg i32 %24 to i64
  %29 = getelementptr inbounds i8, ptr %27, i64 %28
  store i8 0, ptr %29, align 1
  br label %_ZN32pxrInternal_v0_24__pxrReserved__21pxr_double_conversion13StringBuilderD2Ev.exit

_ZN32pxrInternal_v0_24__pxrReserved__21pxr_double_conversion13StringBuilderD2Ev.exit: ; preds = %23, %26
  ret void

30:                                               ; preds = %_ZN32pxrInternal_v0_24__pxrReserved__L29Tf_GetDoubleToStringConverterEv.exit, %21, %15
  %31 = landingpad { ptr, i32 }
          cleanup
  %32 = load i32, ptr %12, align 8
  %33 = icmp slt i32 %32, 0
  br i1 %33, label %_ZN32pxrInternal_v0_24__pxrReserved__21pxr_double_conversion13StringBuilderD2Ev.exit5, label %34

34:                                               ; preds = %30
  %35 = load ptr, ptr %4, align 8
  %36 = zext nneg i32 %32 to i64
  %37 = getelementptr inbounds i8, ptr %35, i64 %36
  store i8 0, ptr %37, align 1
  br label %_ZN32pxrInternal_v0_24__pxrReserved__21pxr_double_conversion13StringBuilderD2Ev.exit5

_ZN32pxrInternal_v0_24__pxrReserved__21pxr_double_conversion13StringBuilderD2Ev.exit5: ; preds = %30, %34
  resume { ptr, i32 } %31
}